; Function Attrs: mustprogress uwtable
define hidden noundef zeroext i1 @_ZN4cvc58internal6theory11quantifiers24CandidateRewriteDatabase7addTermENS0_12NodeTemplateILb1EEERSt6vectorIS5_SaIS5_EE(ptr noundef nonnull align 8 dereferenceable(888) %0, ptr noundef readonly captures(none) %1, ptr noundef nonnull align 8 dereferenceable(24) %2) unnamed_addr #3 align 2 personality ptr @__gxx_personality_v0 {
  %4 = alloca %"class.cvc5::internal::NodeTemplate", align 8
  %5 = alloca %"class.cvc5::internal::NodeTemplate", align 8
  call void @llvm.lifetime.start.p0(i64 8, ptr nonnull %4) #23
  %6 = load ptr, ptr %1, align 8, !tbaa !260
  store ptr %6, ptr %5, align 8, !tbaa !260
  %7 = load i64, ptr %6, align 8
  %8 = lshr i64 %7, 40
  %9 = trunc nuw nsw i64 %8 to i32
  %10 = and i32 %9, 1048575
  %11 = icmp samesign ult i32 %10, 1048574
  br i1 %11, label %12, label %17, !prof !284

12:                                               ; preds = %3
  %13 = add i64 %7, 1099511627776
  %14 = and i64 %13, 1152920405095219200
  %15 = and i64 %7, -1152920405095219201
  %16 = or disjoint i64 %14, %15
  store i64 %16, ptr %6, align 8
  br label %_ZN4cvc58internal12NodeTemplateILb1EEC2ERKS2_.exit

17:                                               ; preds = %3
  %18 = icmp eq i32 %10, 1048574
  br i1 %18, label %19, label %_ZN4cvc58internal12NodeTemplateILb1EEC2ERKS2_.exit, !prof !275

19:                                               ; preds = %17
  %20 = or i64 %7, 1152920405095219200
  store i64 %20, ptr %6, align 8
  tail call void @_ZN4cvc58internal4expr9NodeValue20markRefCountMaxedOutEv(ptr noundef nonnull align 8 dereferenceable(24) %6)
  br label %_ZN4cvc58internal12NodeTemplateILb1EEC2ERKS2_.exit

_ZN4cvc58internal12NodeTemplateILb1EEC2ERKS2_.exit: ; preds = %12, %17, %19
  invoke void @_ZN4cvc58internal6theory11quantifiers24CandidateRewriteDatabase12addOrGetTermENS0_12NodeTemplateILb1EEERSt6vectorIS5_SaIS5_EE(ptr dead_on_unwind nonnull writable sret(%"class.cvc5::internal::NodeTemplate") align 8 %4, ptr noundef nonnull align 8 dereferenceable(888) %0, ptr noundef nonnull %5, ptr noundef nonnull align 8 dereferenceable(24) %2)
          to label %21 unwind label %50

21:                                               ; preds = %_ZN4cvc58internal12NodeTemplateILb1EEC2ERKS2_.exit
  %22 = load ptr, ptr %5, align 8, !tbaa !260
  %23 = load i64, ptr %22, align 8
  %24 = and i64 %23, 1152920405095219200
  %.not.i.i = icmp eq i64 %24, 1152920405095219200
  br i1 %.not.i.i, label %_ZN4cvc58internal12NodeTemplateILb1EED2Ev.exit, label %25, !prof !275

25:                                               ; preds = %21
  %26 = add i64 %23, 1152920405095219200
  %27 = and i64 %26, 1152920405095219200
  %28 = and i64 %23, -1152920405095219201
  %29 = or disjoint i64 %27, %28
  store i64 %29, ptr %22, align 8
  %30 = icmp eq i64 %27, 0
  br i1 %30, label %31, label %_ZN4cvc58internal12NodeTemplateILb1EED2Ev.exit, !prof !275

31:                                               ; preds = %25
  invoke void @_ZN4cvc58internal4expr9NodeValue15markForDeletionEv(ptr noundef nonnull align 8 dereferenceable(24) %22)
          to label %_ZN4cvc58internal12NodeTemplateILb1EED2Ev.exit unwind label %32

32:                                               ; preds = %31
  %33 = landingpad { ptr, i32 }
          catch ptr null
  %34 = extractvalue { ptr, i32 } %33, 0
  call void @__clang_call_terminate(ptr %34) #25
  unreachable

_ZN4cvc58internal12NodeTemplateILb1EED2Ev.exit:   ; preds = %21, %25, %31
  %35 = load ptr, ptr %1, align 8, !tbaa !260
  %36 = load ptr, ptr %4, align 8, !tbaa !260
  %37 = load i64, ptr %36, align 8
  %38 = and i64 %37, 1152920405095219200
  %.not.i.i3 = icmp eq i64 %38, 1152920405095219200
  br i1 %.not.i.i3, label %_ZN4cvc58internal12NodeTemplateILb1EED2Ev.exit4, label %39, !prof !275

39:                                               ; preds = %_ZN4cvc58internal12NodeTemplateILb1EED2Ev.exit
  %40 = add i64 %37, 1152920405095219200
  %41 = and i64 %40, 1152920405095219200
  %42 = and i64 %37, -1152920405095219201
  %43 = or disjoint i64 %41, %42
  store i64 %43, ptr %36, align 8
  %44 = icmp eq i64 %41, 0
  br i1 %44, label %45, label %_ZN4cvc58internal12NodeTemplateILb1EED2Ev.exit4, !prof !275

45:                                               ; preds = %39
  invoke void @_ZN4cvc58internal4expr9NodeValue15markForDeletionEv(ptr noundef nonnull align 8 dereferenceable(24) %36)
          to label %_ZN4cvc58internal12NodeTemplateILb1EED2Ev.exit4 unwind label %46

46:                                               ; preds = %45
  %47 = landingpad { ptr, i32 }
          catch ptr null
  %48 = extractvalue { ptr, i32 } %47, 0
  call void @__clang_call_terminate(ptr %48) #25
  unreachable

_ZN4cvc58internal12NodeTemplateILb1EED2Ev.exit4:  ; preds = %_ZN4cvc58internal12NodeTemplateILb1EED2Ev.exit, %39, %45
  %49 = icmp eq ptr %35, %36
  call void @llvm.lifetime.end.p0(i64 8, ptr nonnull %4) #23
  ret i1 %49

50:                                               ; preds = %_ZN4cvc58internal12NodeTemplateILb1EEC2ERKS2_.exit
  %51 = landingpad { ptr, i32 }
          cleanup
  call void @_ZN4cvc58internal12NodeTemplateILb1EED2Ev(ptr noundef nonnull align 8 dereferenceable(8) %5) #23
  call void @llvm.lifetime.end.p0(i64 8, ptr nonnull %4) #23
  resume { ptr, i32 } %51
}